; ModuleID = '44/925.c'
source_filename = "44/925.c"
target datalayout = "e-m:e-p270:32:32-p271:32:32-p272:64:64-i64:64-f80:128-n8:16:32:64-S128"
target triple = "x86_64-pc-linux-gnu"

@.str = private unnamed_addr constant [3 x i8] c"%d\00", align 1
@.str.1 = private unnamed_addr constant [4 x i8] c"%d\0A\00", align 1

; Function Attrs: noinline nounwind uwtable
define dso_local void @main() #0 {
  %1 = alloca i32, align 4
  %2 = alloca [6 x i32], align 16
  store i32 0, i32* %1, align 4
  br label %3

3:                                                ; preds = %11, %0
  %4 = load i32, i32* %1, align 4
  %5 = icmp slt i32 %4, 6
  br i1 %5, label %6, label %14

6:                                                ; preds = %3
  %7 = load i32, i32* %1, align 4
  %8 = sext i32 %7 to i64
  %9 = getelementptr inbounds [6 x i32], [6 x i32]* %2, i64 0, i64 %8
  %10 = call i32 (i8*, ...) @__isoc99_scanf(i8* getelementptr inbounds ([3 x i8], [3 x i8]* @.str, i64 0, i64 0), i32* %9)
  br label %11

11:                                               ; preds = %6
  %12 = load i32, i32* %1, align 4
  %13 = add nsw i32 %12, 1
  store i32 %13, i32* %1, align 4
  br label %3

14:                                               ; preds = %3
  store i32 0, i32* %1, align 4
  br label %15

15:                                               ; preds = %25, %14
  %16 = load i32, i32* %1, align 4
  %17 = icmp slt i32 %16, 6
  br i1 %17, label %18, label %28

18:                                               ; preds = %15
  %19 = load i32, i32* %1, align 4
  %20 = sext i32 %19 to i64
  %21 = getelementptr inbounds [6 x i32], [6 x i32]* %2, i64 0, i64 %20
  %22 = load i32, i32* %21, align 4
  %23 = call i32 @reverse(i32 %22)
  %24 = call i32 (i8*, ...) @printf(i8* getelementptr inbounds ([4 x i8], [4 x i8]* @.str.1, i64 0, i64 0), i32 %23)
  br label %25

25:                                               ; preds = %18
  %26 = load i32, i32* %1, align 4
  %27 = add nsw i32 %26, 1
  store i32 %27, i32* %1, align 4
  br label %15

28:                                               ; preds = %15
  ret void
}

declare dso_local i32 @__isoc99_scanf(i8*, ...) #1

declare dso_local i32 @printf(i8*, ...) #1

; Function Attrs: noinline nounwind uwtable
define dso_local i32 @reverse(i32 %0) #0 {
  %2 = alloca i32, align 4
  %3 = alloca i32, align 4
  %4 = alloca [5 x i32], align 16
  %5 = alloca i32, align 4
  %6 = alloca i32, align 4
  %7 = alloca i32, align 4
  store i32 %0, i32* %2, align 4
  store i32 0, i32* %5, align 4
  store i32 0, i32* %3, align 4
  br label %8

8:                                                ; preds = %24, %1
  %9 = load i32, i32* %3, align 4
  %10 = icmp slt i32 %9, 5
  br i1 %10, label %11, label %27

11:                                               ; preds = %8
  %12 = load i32, i32* %2, align 4
  %13 = srem i32 %12, 10
  %14 = load i32, i32* %3, align 4
  %15 = sext i32 %14 to i64
  %16 = getelementptr inbounds [5 x i32], [5 x i32]* %4, i64 0, i64 %15
  store i32 %13, i32* %16, align 4
  %17 = load i32, i32* %2, align 4
  %18 = load i32, i32* %3, align 4
  %19 = sext i32 %18 to i64
  %20 = getelementptr inbounds [5 x i32], [5 x i32]* %4, i64 0, i64 %19
  %21 = load i32, i32* %20, align 4
  %22 = sub nsw i32 %17, %21
  %23 = sdiv i32 %22, 10
  store i32 %23, i32* %2, align 4
  br label %24

24:                                               ; preds = %11
  %25 = load i32, i32* %3, align 4
  %26 = add nsw i32 %25, 1
  store i32 %26, i32* %3, align 4
  br label %8

27:                                               ; preds = %8
  store i32 4, i32* %3, align 4
  br label %28

28:                                               ; preds = %40, %27
  %29 = load i32, i32* %3, align 4
  %30 = icmp sge i32 %29, 0
  br i1 %30, label %31, label %43

31:                                               ; preds = %28
  %32 = load i32, i32* %3, align 4
  %33 = sext i32 %32 to i64
  %34 = getelementptr inbounds [5 x i32], [5 x i32]* %4, i64 0, i64 %33
  %35 = load i32, i32* %34, align 4
  %36 = icmp ne i32 %35, 0
  br i1 %36, label %37, label %39

37:                                               ; preds = %31
  %38 = load i32, i32* %3, align 4
  store i32 %38, i32* %6, align 4
  br label %43

39:                                               ; preds = %31
  br label %40

40:                                               ; preds = %39
  %41 = load i32, i32* %3, align 4
  %42 = add nsw i32 %41, -1
  store i32 %42, i32* %3, align 4
  br label %28

43:                                               ; preds = %37, %28
  %44 = load i32, i32* %6, align 4
  store i32 %44, i32* %3, align 4
  br label %45

45:                                               ; preds = %78, %43
  %46 = load i32, i32* %3, align 4
  %47 = icmp sge i32 %46, 0
  br i1 %47, label %48, label %81

48:                                               ; preds = %45
  store i32 0, i32* %7, align 4
  br label %49

49:                                               ; preds = %66, %48
  %50 = load i32, i32* %7, align 4
  %51 = load i32, i32* %3, align 4
  %52 = icmp sle i32 %50, %51
  br i1 %52, label %53, label %69

53:                                               ; preds = %49
  %54 = load i32, i32* %6, align 4
  %55 = load i32, i32* %3, align 4
  %56 = sub nsw i32 %54, %55
  %57 = sext i32 %56 to i64
  %58 = getelementptr inbounds [5 x i32], [5 x i32]* %4, i64 0, i64 %57
  %59 = load i32, i32* %58, align 4
  %60 = mul nsw i32 %59, 10
  %61 = load i32, i32* %6, align 4
  %62 = load i32, i32* %3, align 4
  %63 = sub nsw i32 %61, %62
  %64 = sext i32 %63 to i64
  %65 = getelementptr inbounds [5 x i32], [5 x i32]* %4, i64 0, i64 %64
  store i32 %60, i32* %65, align 4
  br label %66

66:                                               ; preds = %53
  %67 = load i32, i32* %7, align 4
  %68 = add nsw i32 %67, 1
  store i32 %68, i32* %7, align 4
  br label %49

69:                                               ; preds = %49
  %70 = load i32, i32* %5, align 4
  %71 = load i32, i32* %6, align 4
  %72 = load i32, i32* %3, align 4
  %73 = sub nsw i32 %71, %72
  %74 = sext i32 %73 to i64
  %75 = getelementptr inbounds [5 x i32], [5 x i32]* %4, i64 0, i64 %74
  %76 = load i32, i32* %75, align 4
  %77 = add nsw i32 %70, %76
  store i32 %77, i32* %5, align 4
  br label %78

78:                                               ; preds = %69
  %79 = load i32, i32* %3, align 4
  %80 = add nsw i32 %79, -1
  store i32 %80, i32* %3, align 4
  br label %45

81:                                               ; preds = %45
  %82 = load i32, i32* %5, align 4
  %83 = sdiv i32 %82, 10
  store i32 %83, i32* %5, align 4
  %84 = load i32, i32* %2, align 4
  %85 = icmp slt i32 %84, 0
  br i1 %85, label %86, label %89

86:                                               ; preds = %81
  %87 = load i32, i32* %5, align 4
  %88 = sub nsw i32 0, %87
  store i32 %88, i32* %5, align 4
  br label %91

89:                                               ; preds = %81
  %90 = load i32, i32* %5, align 4
  store i32 %90, i32* %5, align 4
  br label %91

91:                                               ; preds = %89, %86
  %92 = load i32, i32* %5, align 4
  ret i32 %92
}


!llvm.module.flags = !{!0}
!llvm.ident = !{!1}

!0 = !{i32 1, !"wchar_size", i32 4}
!1 = !{!"clang version 10.0.0-4ubuntu1 "}
